
Memory Configuration

Name             Origin             Length             Attributes
ram              0x0000000080200000 0x0000000008000000 axrl!w
*default*        0x0000000000000000 0xffffffffffffffff

Linker script and memory map

LOAD entry.o
LOAD kerneltrap.o
LOAD switch.o
LOAD sbi.o
LOAD main.o
LOAD printf.o
LOAD trap.o
LOAD syscall.o
LOAD string.o
LOAD app.o
LOAD task.o

.text           0x0000000080200000      0xed2
 *(.text .text.*)
 .text          0x0000000080200000        0x0 entry.o
 .text.entry    0x0000000080200000        0xc entry.o
                0x0000000080200000                _start
 *fill*         0x000000008020000c        0x4 
 .text          0x0000000080200010       0xc6 kerneltrap.o
                0x0000000080200010                __alltraps
                0x0000000080200070                __restore
 .text          0x00000000802000d6       0x6a switch.o
                0x00000000802000d6                __switch
 .text          0x0000000080200140       0xb2 sbi.o
                0x0000000080200140                sbi_ecall
                0x00000000802001c4                sbi_console_putchar
 .text          0x00000000802001f2       0x2a main.o
                0x00000000802001f2                os_main
 .text          0x000000008020021c      0x572 printf.o
                0x000000008020021c                uart_puts
                0x0000000080200708                printf
                0x0000000080200760                panic
 .text          0x000000008020078e       0xc8 trap.o
                0x00000000802007c2                trap_handler
                0x0000000080200836                trap_init
 .text          0x0000000080200856       0xba syscall.o
                0x0000000080200856                __SYSCALL
                0x00000000802008bc                __sys_write
                0x00000000802008fa                __sys_yield
 .text          0x0000000080200910       0x92 string.o
                0x0000000080200910                strlen
                0x000000008020094c                memcpy
 .text          0x00000000802009a2      0x218 app.o
                0x00000000802009a2                syscall
                0x00000000802009e6                sys_wirte
                0x0000000080200a1c                sys_yield
                0x0000000080200a3e                testsys_write
                0x0000000080200a7c                task_delay
                0x0000000080200abe                task1
                0x0000000080200b00                task2
                0x0000000080200b42                task3
                0x0000000080200b84                task_init
 .text          0x0000000080200bba      0x318 task.o
                0x0000000080200bee                tcx_init
                0x0000000080200c66                task_create
                0x0000000080200d8a                schedule
                0x0000000080200e8e                run_first_task

.rodata         0x0000000080200ed8      0x1af
 *(.rodata .rodata.*)
 .rodata        0x0000000080200ed8       0x11 main.o
 *fill*         0x0000000080200ee9        0x7 
 .rodata        0x0000000080200ef0       0x8a printf.o
 *fill*         0x0000000080200f7a        0x6 
 .rodata        0x0000000080200f80       0x15 trap.o
 *fill*         0x0000000080200f95        0x3 
 .rodata        0x0000000080200f98       0x3d syscall.o
 *fill*         0x0000000080200fd5        0x3 
 .rodata        0x0000000080200fd8       0x5b app.o
 *fill*         0x0000000080201033        0x5 
 .rodata        0x0000000080201038       0x4f task.o

.data           0x0000000080201087      0xf79
                0x0000000080202000                . = ALIGN (0x1000)
 *fill*         0x0000000080201087      0xf79 
 *(.sdata .sdata.*)
 *(.data .data.*)
 .data          0x0000000080202000        0x0 entry.o
 .data          0x0000000080202000        0x0 kerneltrap.o
 .data          0x0000000080202000        0x0 switch.o
 .data          0x0000000080202000        0x0 sbi.o
 .data          0x0000000080202000        0x0 main.o
 .data          0x0000000080202000        0x0 printf.o
 .data          0x0000000080202000        0x0 trap.o
 .data          0x0000000080202000        0x0 syscall.o
 .data          0x0000000080202000        0x0 string.o
 .data          0x0000000080202000        0x0 app.o
 .data          0x0000000080202000        0x0 task.o
                [!provide]                        PROVIDE (_data_end = .)

.bss            0x0000000080202000    0x388a0
 *(.sbss .sbss.*)
 *(.bss .bss.*)
 .bss           0x0000000080202000        0x0 entry.o
 .bss.stack     0x0000000080202000    0x10000 entry.o
                0x0000000080202000                boot_stack_lower_bound
                0x0000000080212000                boot_stack_top
 .bss           0x0000000080212000        0x0 kerneltrap.o
 .bss           0x0000000080212000        0x0 switch.o
 .bss           0x0000000080212000        0x0 sbi.o
 .bss           0x0000000080212000        0x0 main.o
 .bss           0x0000000080212000      0x3e8 printf.o
 .bss           0x00000000802123e8        0x0 trap.o
 .bss           0x00000000802123e8        0x0 syscall.o
 .bss           0x00000000802123e8        0x0 string.o
 .bss           0x00000000802123e8        0x0 app.o
 .bss           0x00000000802123e8    0x284b8 task.o
                0x00000000802123e8                KernelStack
                0x00000000802263e8                UserStack
                0x000000008023a3e8                tasks
 *(COMMON)
OUTPUT(os.elf elf64-littleriscv)

.riscv.attributes
                0x0000000000000000       0x57
 .riscv.attributes
                0x0000000000000000       0x51 entry.o
 .riscv.attributes
                0x0000000000000051       0x55 kerneltrap.o
 .riscv.attributes
                0x00000000000000a6       0x51 switch.o
 .riscv.attributes
                0x00000000000000f7       0x53 sbi.o
 .riscv.attributes
                0x000000000000014a       0x53 main.o
 .riscv.attributes
                0x000000000000019d       0x53 printf.o
 .riscv.attributes
                0x00000000000001f0       0x57 trap.o
 .riscv.attributes
                0x0000000000000247       0x53 syscall.o
 .riscv.attributes
                0x000000000000029a       0x53 string.o
 .riscv.attributes
                0x00000000000002ed       0x53 app.o
 .riscv.attributes
                0x0000000000000340       0x57 task.o

.comment        0x0000000000000000        0xf
 .comment       0x0000000000000000        0xf sbi.o
                                         0x10 (size before relaxing)
 .comment       0x000000000000000f       0x10 main.o
 .comment       0x000000000000000f       0x10 printf.o
 .comment       0x000000000000000f       0x10 trap.o
 .comment       0x000000000000000f       0x10 syscall.o
 .comment       0x000000000000000f       0x10 string.o
 .comment       0x000000000000000f       0x10 app.o
 .comment       0x000000000000000f       0x10 task.o
